; Function Attrs: mustprogress uwtable
define internal void @_ZN12_GLOBAL__N_131ParseTest_TestValidBoolArg_Test8TestBodyEv(ptr nonnull readnone align 8 captures(none) %0) unnamed_addr #3 align 2 personality ptr @__gxx_personality_v0 {
  %2 = alloca [2 x ptr], align 16
  %3 = alloca [2 x ptr], align 16
  %4 = alloca [2 x ptr], align 16
  %5 = alloca [2 x ptr], align 16
  call void @llvm.lifetime.start.p0(i64 16, ptr nonnull %2) #33
  call void @llvm.memcpy.p0.p0.i64(ptr noundef nonnull align 16 dereferenceable(16) %2, ptr noundef nonnull align 16 dereferenceable(16) @__const._ZN12_GLOBAL__N_131ParseTest_TestValidBoolArg_Test8TestBodyEv.in_args1, i64 16, i1 false)
  call fastcc void @_ZN12_GLOBAL__N_19TestParseILi2EEEvRAT__PKcidSt17basic_string_viewIcSt11char_traitsIcEEbi(ptr noundef nonnull align 8 dereferenceable(16) %2, i32 noundef 1, double noundef 1.100000e+00, i64 1, ptr nonnull @.str.343, i1 noundef zeroext true)
  call void @llvm.lifetime.start.p0(i64 16, ptr nonnull %3) #33
  call void @llvm.memcpy.p0.p0.i64(ptr noundef nonnull align 16 dereferenceable(16) %3, ptr noundef nonnull align 16 dereferenceable(16) @__const._ZN12_GLOBAL__N_131ParseTest_TestValidBoolArg_Test8TestBodyEv.in_args2, i64 16, i1 false)
  call fastcc void @_ZN12_GLOBAL__N_19TestParseILi2EEEvRAT__PKcidSt17basic_string_viewIcSt11char_traitsIcEEbi(ptr noundef nonnull align 8 dereferenceable(16) %3, i32 noundef 1, double noundef 1.100000e+00, i64 1, ptr nonnull @.str.343, i1 noundef zeroext false)
  call void @llvm.lifetime.start.p0(i64 16, ptr nonnull %4) #33
  call void @llvm.memcpy.p0.p0.i64(ptr noundef nonnull align 16 dereferenceable(16) %4, ptr noundef nonnull align 16 dereferenceable(16) @__const._ZN12_GLOBAL__N_131ParseTest_TestValidBoolArg_Test8TestBodyEv.in_args3, i64 16, i1 false)
  call fastcc void @_ZN12_GLOBAL__N_19TestParseILi2EEEvRAT__PKcidSt17basic_string_viewIcSt11char_traitsIcEEbi(ptr noundef nonnull align 8 dereferenceable(16) %4, i32 noundef 1, double noundef 1.100000e+00, i64 1, ptr nonnull @.str.343, i1 noundef zeroext true)
  call void @llvm.lifetime.start.p0(i64 16, ptr nonnull %5) #33
  call void @llvm.memcpy.p0.p0.i64(ptr noundef nonnull align 16 dereferenceable(16) %5, ptr noundef nonnull align 16 dereferenceable(16) @__const._ZN12_GLOBAL__N_131ParseTest_TestValidBoolArg_Test8TestBodyEv.in_args4, i64 16, i1 false)
  call fastcc void @_ZN12_GLOBAL__N_19TestParseILi2EEEvRAT__PKcidSt17basic_string_viewIcSt11char_traitsIcEEbi(ptr noundef nonnull align 8 dereferenceable(16) %5, i32 noundef 1, double noundef 1.100000e+00, i64 1, ptr nonnull @.str.343, i1 noundef zeroext false)
  call void @llvm.lifetime.end.p0(i64 16, ptr nonnull %5) #33
  call void @llvm.lifetime.end.p0(i64 16, ptr nonnull %4) #33
  call void @llvm.lifetime.end.p0(i64 16, ptr nonnull %3) #33
  call void @llvm.lifetime.end.p0(i64 16, ptr nonnull %2) #33
  ret void
}